target datalayout = "e-m:e-p270:32:32-p271:32:32-p272:64:64-i64:64-i128:128-f80:128-n8:16:32:64-S128"
target triple = "x86_64-pc-linux-gnu"

%struct.RBasic = type { i64, i64 }

@.str.5 = private unnamed_addr constant [11 x i8] c"#<%li\0B:%p>\00", align 1
@rb_cInteger = external global i64, align 8
@rb_cNilClass = dso_local global i64 0, align 8
@rb_cTrueClass = dso_local global i64 0, align 8
@rb_cFalseClass = dso_local global i64 0, align 8
@rb_cSymbol = external global i64, align 8
@rb_cFloat = external global i64, align 8

; Function Attrs: inlinehint nounwind sspstrong willreturn memory(none) uwtable
define internal zeroext i1 @RB_IMMEDIATE_P(i64 noundef %0) #1 {
  %2 = alloca i64, align 8
  store i64 %0, ptr %2, align 8, !tbaa !11
  %3 = load i64, ptr %2, align 8, !tbaa !11
  %4 = and i64 %3, 7
  %5 = icmp ne i64 %4, 0
  ret i1 %5
}

; Function Attrs: inlinehint nounwind sspstrong willreturn memory(none) uwtable
define internal zeroext i1 @RB_FLONUM_P(i64 noundef %0) #1 {
  %2 = alloca i64, align 8
  store i64 %0, ptr %2, align 8, !tbaa !11
  %3 = load i64, ptr %2, align 8, !tbaa !11
  %4 = and i64 %3, 3
  %5 = icmp eq i64 %4, 2
  ret i1 %5
}

; Function Attrs: inlinehint nounwind sspstrong willreturn memory(none) uwtable
define internal zeroext i1 @RB_STATIC_SYM_P(i64 noundef %0) #1 {
  %2 = alloca i64, align 8
  %3 = alloca i64, align 8
  store i64 %0, ptr %2, align 8, !tbaa !11
  call void @llvm.lifetime.start.p0(i64 8, ptr %3) #28
  store i64 255, ptr %3, align 8, !tbaa !11
  %4 = load i64, ptr %2, align 8, !tbaa !11
  %5 = and i64 %4, 255
  %6 = icmp eq i64 %5, 12
  call void @llvm.lifetime.end.p0(i64 8, ptr %3) #28
  ret i1 %6
}

; Function Attrs: inlinehint nounwind sspstrong willreturn memory(none) uwtable
define internal zeroext i1 @RB_FIXNUM_P(i64 noundef %0) #1 {
  %2 = alloca i64, align 8
  store i64 %0, ptr %2, align 8, !tbaa !11
  %3 = load i64, ptr %2, align 8, !tbaa !11
  %4 = and i64 %3, 1
  %5 = icmp ne i64 %4, 0
  ret i1 %5
}

; Function Attrs: inlinehint nounwind sspstrong willreturn memory(read) uwtable
define internal i64 @RBASIC_CLASS(i64 noundef %0) #7 {
  %2 = alloca i64, align 8
  store i64 %0, ptr %2, align 8, !tbaa !11
  %3 = load i64, ptr %2, align 8, !tbaa !11
  %4 = inttoptr i64 %3 to ptr
  %5 = getelementptr inbounds nuw %struct.RBasic, ptr %4, i32 0, i32 1
  %6 = load i64, ptr %5, align 8, !tbaa !111
  ret i64 %6
}

; Function Attrs: inlinehint nounwind sspstrong willreturn memory(none) uwtable
define internal zeroext i1 @RB_SPECIAL_CONST_P(i64 noundef %0) #1 {
  %2 = alloca i64, align 8
  store i64 %0, ptr %2, align 8, !tbaa !11
  %3 = load i64, ptr %2, align 8, !tbaa !11
  %4 = icmp eq i64 %3, 0
  br i1 %4, label %8, label %5

5:                                                ; preds = %1
  %6 = load i64, ptr %2, align 8, !tbaa !11
  %7 = call zeroext i1 @RB_IMMEDIATE_P(i64 noundef %6) #27
  br label %8

8:                                                ; preds = %5, %1
  %9 = phi i1 [ true, %1 ], [ %7, %5 ]
  ret i1 %9
}

; Function Attrs: inlinehint nounwind sspstrong willreturn memory(read) uwtable
define internal i64 @rb_class_of(i64 noundef %0) #7 {
  %2 = alloca i64, align 8
  %3 = alloca i64, align 8
  store i64 %0, ptr %3, align 8, !tbaa !11
  %4 = load i64, ptr %3, align 8, !tbaa !11
  %5 = call zeroext i1 @RB_SPECIAL_CONST_P(i64 noundef %4) #27
  br i1 %5, label %9, label %6

6:                                                ; preds = %1
  %7 = load i64, ptr %3, align 8, !tbaa !11
  %8 = call i64 @RBASIC_CLASS(i64 noundef %7) #29
  store i64 %8, ptr %2, align 8
  br label %46

9:                                                ; preds = %1
  %10 = load i64, ptr %3, align 8, !tbaa !11
  %11 = icmp eq i64 %10, 0
  br i1 %11, label %12, label %14

12:                                               ; preds = %9
  %13 = load i64, ptr @rb_cFalseClass, align 8, !tbaa !11
  store i64 %13, ptr %2, align 8
  br label %46

14:                                               ; preds = %9
  %15 = load i64, ptr %3, align 8, !tbaa !11
  %16 = icmp eq i64 %15, 4
  br i1 %16, label %17, label %19

17:                                               ; preds = %14
  %18 = load i64, ptr @rb_cNilClass, align 8, !tbaa !11
  store i64 %18, ptr %2, align 8
  br label %46

19:                                               ; preds = %14
  %20 = load i64, ptr %3, align 8, !tbaa !11
  %21 = icmp eq i64 %20, 20
  br i1 %21, label %22, label %24

22:                                               ; preds = %19
  %23 = load i64, ptr @rb_cTrueClass, align 8, !tbaa !11
  store i64 %23, ptr %2, align 8
  br label %46

24:                                               ; preds = %19
  %25 = load i64, ptr %3, align 8, !tbaa !11
  %26 = call zeroext i1 @RB_FIXNUM_P(i64 noundef %25) #27
  br i1 %26, label %27, label %29

27:                                               ; preds = %24
  %28 = load i64, ptr @rb_cInteger, align 8, !tbaa !11
  store i64 %28, ptr %2, align 8
  br label %46

29:                                               ; preds = %24
  %30 = load i64, ptr %3, align 8, !tbaa !11
  %31 = call zeroext i1 @RB_STATIC_SYM_P(i64 noundef %30) #27
  br i1 %31, label %32, label %34

32:                                               ; preds = %29
  %33 = load i64, ptr @rb_cSymbol, align 8, !tbaa !11
  store i64 %33, ptr %2, align 8
  br label %46

34:                                               ; preds = %29
  %35 = load i64, ptr %3, align 8, !tbaa !11
  %36 = call zeroext i1 @RB_FLONUM_P(i64 noundef %35) #27
  br i1 %36, label %37, label %39

37:                                               ; preds = %34
  %38 = load i64, ptr @rb_cFloat, align 8, !tbaa !11
  store i64 %38, ptr %2, align 8
  br label %46

39:                                               ; preds = %34
  br label %40

40:                                               ; preds = %39
  br label %41

41:                                               ; preds = %40
  br label %42

42:                                               ; preds = %41
  br label %43

43:                                               ; preds = %42
  br label %44

44:                                               ; preds = %43
  br label %45

45:                                               ; preds = %44
  unreachable

46:                                               ; preds = %37, %32, %27, %22, %17, %12, %6
  %47 = load i64, ptr %2, align 8
  ret i64 %47
}

; Function Attrs: nounwind sspstrong uwtable
define dso_local i64 @rb_any_to_s(i64 noundef %0) #0 {
  %2 = alloca i64, align 8
  %3 = alloca i64, align 8
  %4 = alloca i64, align 8
  store i64 %0, ptr %2, align 8, !tbaa !11
  call void @llvm.lifetime.start.p0(i64 8, ptr %3) #28
  call void @llvm.lifetime.start.p0(i64 8, ptr %4) #28
  %5 = load i64, ptr %2, align 8, !tbaa !11
  %6 = call i64 @rb_class_of(i64 noundef %5) #29
  %7 = call i64 @rb_class_name(i64 noundef %6)
  store i64 %7, ptr %4, align 8, !tbaa !11
  %8 = load i64, ptr %4, align 8, !tbaa !11
  %9 = load i64, ptr %2, align 8, !tbaa !11
  %10 = inttoptr i64 %9 to ptr
  %11 = call i64 (ptr, ...) @rb_sprintf(ptr noundef @.str.5, i64 noundef %8, ptr noundef %10)
  store i64 %11, ptr %3, align 8, !tbaa !11
  %12 = load i64, ptr %3, align 8, !tbaa !11
  call void @llvm.lifetime.end.p0(i64 8, ptr %4) #28
  call void @llvm.lifetime.end.p0(i64 8, ptr %3) #28
  ret i64 %12
}