; Function Attrs: nounwind sspstrong uwtable
define dso_local i64 @rb_any_to_s(i64 noundef %0) #2 {
  %2 = icmp eq i64 %0, 0
  %3 = and i64 %0, 7
  %4 = icmp ne i64 %3, 0
  %5 = or i1 %2, %4
  br i1 %5, label %9, label %6

6:                                                ; preds = %1
  %7 = inttoptr i64 %0 to ptr
  %8 = getelementptr inbounds nuw i8, ptr %7, i64 8
  br label %rb_class_of.exit

9:                                                ; preds = %1
  switch i64 %0, label %12 [
    i64 0, label %rb_class_of.exit
    i64 4, label %10
    i64 20, label %11
  ]

10:                                               ; preds = %9
  br label %rb_class_of.exit

11:                                               ; preds = %9
  br label %rb_class_of.exit

12:                                               ; preds = %9
  %13 = and i64 %0, 1
  %.not.i = icmp eq i64 %13, 0
  br i1 %.not.i, label %14, label %rb_class_of.exit

14:                                               ; preds = %12
  %15 = and i64 %0, 254
  %16 = icmp eq i64 %15, 12
  %spec.select.i = select i1 %16, ptr @rb_cSymbol, ptr @rb_cFloat
  br label %rb_class_of.exit

rb_class_of.exit:                                 ; preds = %6, %9, %10, %11, %12, %14
  %.0.in.i = phi ptr [ @rb_cNilClass, %10 ], [ @rb_cTrueClass, %11 ], [ %8, %6 ], [ @rb_cFalseClass, %9 ], [ @rb_cInteger, %12 ], [ %spec.select.i, %14 ]
  %.0.i = load i64, ptr %.0.in.i, align 8, !tbaa !7
  %17 = tail call i64 @rb_class_name(i64 noundef %.0.i) #23
  %18 = inttoptr i64 %0 to ptr
  %19 = tail call i64 (ptr, ...) @rb_sprintf(ptr noundef nonnull @.str.5, i64 noundef %17, ptr noundef %18) #23
  ret i64 %19
}